target datalayout = "e-m:e-p270:32:32-p271:32:32-p272:64:64-i64:64-i128:128-f80:128-n8:16:32:64-S128"
target triple = "x86_64-pc-linux-gnu"

%struct._zend_op_array = type { i8, [3 x i8], i32, ptr, ptr, ptr, i32, i32, ptr, ptr, ptr, ptr, i32, i32, i32, i32, ptr, ptr, ptr, ptr, ptr, i32, i32, ptr, ptr, ptr, i32, i32, i32, i32, ptr, ptr, [6 x ptr] }
%struct._zend_ssa = type { %struct._zend_cfg, i32, i32, ptr, ptr, ptr, ptr }
%struct._zend_cfg = type { i32, i32, ptr, ptr, ptr, i32 }
%struct._zend_op = type { ptr, %union._znode_op, %union._znode_op, %union._znode_op, i32, i32, i8, i8, i8, i8 }
%union._znode_op = type { i32 }
%struct._zend_ssa_op = type { i32, i32, i32, i32, i32, i32, i32, i32, i32 }

@stderr = external global ptr, align 8
@.str.66 = private unnamed_addr constant [7 x i8] c"L%04u \00", align 1
@.str.67 = private unnamed_addr constant [5 x i8] c"%04u\00", align 1
@.str.68 = private unnamed_addr constant [4 x i8] c"%*c\00", align 1
@.str.69 = private unnamed_addr constant [2 x i8] c"\0A\00", align 1

; Function Attrs: nounwind uwtable
define void @zend_dump_op_line(ptr noundef %0, ptr noundef %1, ptr noundef %2, i32 noundef %3, ptr noundef %4) #0 {
  %6 = alloca ptr, align 8
  %7 = alloca ptr, align 8
  %8 = alloca ptr, align 8
  %9 = alloca i32, align 4
  %10 = alloca ptr, align 8
  %11 = alloca i32, align 4
  %12 = alloca ptr, align 8
  %13 = alloca ptr, align 8
  store ptr %0, ptr %6, align 8
  store ptr %1, ptr %7, align 8
  store ptr %2, ptr %8, align 8
  store i32 %3, ptr %9, align 4
  store ptr %4, ptr %10, align 8
  store i32 0, ptr %11, align 4
  store ptr null, ptr %12, align 8
  store ptr null, ptr %13, align 8
  %14 = load i32, ptr %9, align 4
  %15 = and i32 %14, 32
  %16 = icmp ne i32 %15, 0
  br i1 %16, label %17, label %23

17:                                               ; preds = %5
  %18 = load ptr, ptr @stderr, align 8
  %19 = load ptr, ptr %8, align 8
  %20 = getelementptr inbounds %struct._zend_op, ptr %19, i32 0, i32 5
  %21 = load i32, ptr %20, align 8
  %22 = call i32 (ptr, ptr, ...) @fprintf(ptr noundef %18, ptr noundef @.str.66, i32 noundef %21) #4
  br label %23

23:                                               ; preds = %17, %5
  %24 = load ptr, ptr @stderr, align 8
  %25 = load ptr, ptr %8, align 8
  %26 = load ptr, ptr %6, align 8
  %27 = getelementptr inbounds %struct._zend_op_array, ptr %26, i32 0, i32 16
  %28 = load ptr, ptr %27, align 8
  %29 = ptrtoint ptr %25 to i64
  %30 = ptrtoint ptr %28 to i64
  %31 = sub i64 %29, %30
  %32 = sdiv exact i64 %31, 32
  %33 = trunc i64 %32 to i32
  %34 = call i32 (ptr, ptr, ...) @fprintf(ptr noundef %24, ptr noundef @.str.67, i32 noundef %33) #4
  store i32 %34, ptr %11, align 4
  %35 = load ptr, ptr @stderr, align 8
  %36 = load i32, ptr %11, align 4
  %37 = sub nsw i32 5, %36
  %38 = call i32 (ptr, ptr, ...) @fprintf(ptr noundef %35, ptr noundef @.str.68, i32 noundef %37, i32 noundef 32) #4
  %39 = load i32, ptr %9, align 4
  %40 = and i32 %39, 8
  %41 = icmp ne i32 %40, 0
  br i1 %41, label %42, label %65

42:                                               ; preds = %23
  %43 = load ptr, ptr %10, align 8
  store ptr %43, ptr %12, align 8
  %44 = load ptr, ptr %12, align 8
  %45 = icmp ne ptr %44, null
  br i1 %45, label %46, label %64

46:                                               ; preds = %42
  %47 = load ptr, ptr %12, align 8
  %48 = getelementptr inbounds %struct._zend_ssa, ptr %47, i32 0, i32 4
  %49 = load ptr, ptr %48, align 8
  %50 = icmp ne ptr %49, null
  br i1 %50, label %51, label %64

51:                                               ; preds = %46
  %52 = load ptr, ptr %12, align 8
  %53 = getelementptr inbounds %struct._zend_ssa, ptr %52, i32 0, i32 4
  %54 = load ptr, ptr %53, align 8
  %55 = load ptr, ptr %8, align 8
  %56 = load ptr, ptr %6, align 8
  %57 = getelementptr inbounds %struct._zend_op_array, ptr %56, i32 0, i32 16
  %58 = load ptr, ptr %57, align 8
  %59 = ptrtoint ptr %55 to i64
  %60 = ptrtoint ptr %58 to i64
  %61 = sub i64 %59, %60
  %62 = sdiv exact i64 %61, 32
  %63 = getelementptr inbounds %struct._zend_ssa_op, ptr %54, i64 %62
  store ptr %63, ptr %13, align 8
  br label %64

64:                                               ; preds = %51, %46, %42
  br label %65

65:                                               ; preds = %64, %23
  %66 = load ptr, ptr %6, align 8
  %67 = load ptr, ptr %7, align 8
  %68 = load ptr, ptr %8, align 8
  %69 = load i32, ptr %9, align 4
  %70 = load ptr, ptr %12, align 8
  %71 = load ptr, ptr %13, align 8
  call void @zend_dump_op(ptr noundef %66, ptr noundef %67, ptr noundef %68, i32 noundef %69, ptr noundef %70, ptr noundef %71)
  %72 = load ptr, ptr @stderr, align 8
  %73 = call i32 (ptr, ptr, ...) @fprintf(ptr noundef %72, ptr noundef @.str.69) #4
  ret void
}