; Function Attrs: nounwind uwtable
define void @zend_dump_op_line(ptr nocapture noundef readonly %0, ptr noundef %1, ptr noundef %2, i32 noundef %3, ptr noundef readonly %4) local_unnamed_addr #0 {
  %6 = and i32 %3, 32
  %.not = icmp eq i32 %6, 0
  br i1 %.not, label %12, label %7

7:                                                ; preds = %5
  %8 = load ptr, ptr @stderr, align 8
  %9 = getelementptr inbounds i8, ptr %2, i64 24
  %10 = load i32, ptr %9, align 8
  %11 = tail call i32 (ptr, ptr, ...) @fprintf(ptr noundef %8, ptr noundef nonnull @.str.66, i32 noundef %10) #8
  br label %12

12:                                               ; preds = %7, %5
  %13 = load ptr, ptr @stderr, align 8
  %14 = getelementptr inbounds i8, ptr %0, i64 88
  %15 = load ptr, ptr %14, align 8
  %16 = ptrtoint ptr %2 to i64
  %17 = ptrtoint ptr %15 to i64
  %18 = sub i64 %16, %17
  %19 = lshr exact i64 %18, 5
  %20 = trunc i64 %19 to i32
  %21 = tail call i32 (ptr, ptr, ...) @fprintf(ptr noundef %13, ptr noundef nonnull @.str.67, i32 noundef %20) #8
  %22 = load ptr, ptr @stderr, align 8
  %23 = sub nsw i32 5, %21
  %24 = tail call i32 (ptr, ptr, ...) @fprintf(ptr noundef %22, ptr noundef nonnull @.str.68, i32 noundef %23, i32 noundef 32) #8
  %25 = and i32 %3, 8
  %.not20 = icmp eq i32 %25, 0
  %.not21 = icmp eq ptr %4, null
  %or.cond = or i1 %.not20, %.not21
  br i1 %or.cond, label %35, label %26

26:                                               ; preds = %12
  %27 = getelementptr inbounds i8, ptr %4, i64 56
  %28 = load ptr, ptr %27, align 8
  %.not22 = icmp eq ptr %28, null
  br i1 %.not22, label %35, label %29

29:                                               ; preds = %26
  %30 = load ptr, ptr %14, align 8
  %31 = ptrtoint ptr %30 to i64
  %32 = sub i64 %16, %31
  %33 = ashr exact i64 %32, 5
  %34 = getelementptr inbounds %struct._zend_ssa_op, ptr %28, i64 %33
  br label %35

35:                                               ; preds = %26, %29, %12
  %.017 = phi ptr [ %4, %29 ], [ %4, %26 ], [ null, %12 ]
  %.0 = phi ptr [ %34, %29 ], [ null, %26 ], [ null, %12 ]
  tail call void @zend_dump_op(ptr noundef nonnull %0, ptr noundef %1, ptr noundef %2, i32 noundef %3, ptr noundef %.017, ptr noundef %.0)
  %36 = load ptr, ptr @stderr, align 8
  %fputc = tail call i32 @fputc(i32 10, ptr %36)
  ret void
}